target datalayout = "e-m:e-p270:32:32-p271:32:32-p272:64:64-i64:64-i128:128-f80:128-n8:16:32:64-S128"
target triple = "x86_64-pc-linux-gnu"

%"class.OpenColorIO_v2_5dev::ArrayT" = type { %"class.OpenColorIO_v2_5dev::ArrayBase", i64, i64, %"class.std::vector" }
%"class.OpenColorIO_v2_5dev::ArrayBase" = type { ptr }
%"class.std::vector" = type { %"struct.std::_Vector_base" }
%"struct.std::_Vector_base" = type { %"struct.std::_Vector_base<double, std::allocator<double>>::_Vector_impl" }
%"struct.std::_Vector_base<double, std::allocator<double>>::_Vector_impl" = type { %"struct.std::_Vector_base<double, std::allocator<double>>::_Vector_impl_data" }
%"struct.std::_Vector_base<double, std::allocator<double>>::_Vector_impl_data" = type { ptr, ptr, ptr }

; Function Attrs: mustprogress nounwind uwtable
define linkonce_odr hidden noundef nonnull align 8 dereferenceable(8) ptr @_ZNKSt6vectorIdSaIdEEixEm(ptr noundef nonnull align 8 dereferenceable(24) %0, i64 noundef %1) #7 comdat align 2 {
  %3 = alloca ptr, align 8
  %4 = alloca i64, align 8
  store ptr %0, ptr %3, align 8, !tbaa !18
  store i64 %1, ptr %4, align 8, !tbaa !22
  %5 = load ptr, ptr %3, align 8
  %6 = getelementptr inbounds nuw %"struct.std::_Vector_base", ptr %5, i32 0, i32 0
  %7 = getelementptr inbounds nuw %"struct.std::_Vector_base<double, std::allocator<double>>::_Vector_impl_data", ptr %6, i32 0, i32 0
  %8 = load ptr, ptr %7, align 8, !tbaa !24
  %9 = load i64, ptr %4, align 8, !tbaa !22
  %10 = getelementptr inbounds nuw double, ptr %8, i64 %9
  ret ptr %10
}

; Function Attrs: inlinehint mustprogress nounwind uwtable
define linkonce_odr hidden noundef nonnull align 8 dereferenceable(24) ptr @_ZNK19OpenColorIO_v2_5dev6ArrayTIdE9getValuesEv(ptr noundef nonnull align 8 dereferenceable(48) %0) #6 comdat align 2 {
  %2 = alloca ptr, align 8
  store ptr %0, ptr %2, align 8, !tbaa !20
  %3 = load ptr, ptr %2, align 8
  %4 = getelementptr inbounds nuw %"class.OpenColorIO_v2_5dev::ArrayT", ptr %3, i32 0, i32 3
  ret ptr %4
}

; Function Attrs: mustprogress uwtable
define hidden noundef zeroext i1 @_ZNK19OpenColorIO_v2_5dev12MatrixOpData11MatrixArray15isUnityDiagonalEv(ptr noundef nonnull align 8 dereferenceable(48) %0) #4 align 2 {
  %2 = alloca i1, align 1
  %3 = alloca ptr, align 8
  %4 = alloca i64, align 8
  %5 = alloca ptr, align 8
  %6 = alloca i64, align 8
  %7 = alloca i32, align 4
  %8 = alloca i64, align 8
  store ptr %0, ptr %3, align 8, !tbaa !16
  %9 = load ptr, ptr %3, align 8
  call void @llvm.lifetime.start.p0(i64 8, ptr %4) #3
  %10 = load ptr, ptr %9, align 8, !tbaa !34
  %11 = getelementptr inbounds ptr, ptr %10, i64 4
  %12 = load ptr, ptr %11, align 8
  %13 = call noundef i64 %12(ptr noundef nonnull align 8 dereferenceable(48) %9)
  store i64 %13, ptr %4, align 8, !tbaa !22
  call void @llvm.lifetime.start.p0(i64 8, ptr %5) #3
  %14 = call noundef nonnull align 8 dereferenceable(24) ptr @_ZNK19OpenColorIO_v2_5dev6ArrayTIdE9getValuesEv(ptr noundef nonnull align 8 dereferenceable(48) %9)
  store ptr %14, ptr %5, align 8, !tbaa !18
  call void @llvm.lifetime.start.p0(i64 8, ptr %6) #3
  store i64 0, ptr %6, align 8, !tbaa !22
  br label %15

15:                                               ; preds = %61, %1
  %16 = load i64, ptr %6, align 8, !tbaa !22
  %17 = load i64, ptr %4, align 8, !tbaa !22
  %18 = icmp ult i64 %16, %17
  br i1 %18, label %20, label %19

19:                                               ; preds = %15
  store i32 2, ptr %7, align 4
  br label %64

20:                                               ; preds = %15
  call void @llvm.lifetime.start.p0(i64 8, ptr %8) #3
  store i64 0, ptr %8, align 8, !tbaa !22
  br label %21

21:                                               ; preds = %55, %20
  %22 = load i64, ptr %8, align 8, !tbaa !22
  %23 = load i64, ptr %4, align 8, !tbaa !22
  %24 = icmp ult i64 %22, %23
  br i1 %24, label %26, label %25

25:                                               ; preds = %21
  store i32 5, ptr %7, align 4
  br label %58

26:                                               ; preds = %21
  %27 = load i64, ptr %6, align 8, !tbaa !22
  %28 = load i64, ptr %8, align 8, !tbaa !22
  %29 = icmp eq i64 %27, %28
  br i1 %29, label %30, label %42

30:                                               ; preds = %26
  %31 = load ptr, ptr %5, align 8, !tbaa !18
  %32 = load i64, ptr %6, align 8, !tbaa !22
  %33 = load i64, ptr %4, align 8, !tbaa !22
  %34 = mul i64 %32, %33
  %35 = load i64, ptr %8, align 8, !tbaa !22
  %36 = add i64 %34, %35
  %37 = call noundef nonnull align 8 dereferenceable(8) ptr @_ZNKSt6vectorIdSaIdEEixEm(ptr noundef nonnull align 8 dereferenceable(24) %31, i64 noundef %36) #3
  %38 = load double, ptr %37, align 8, !tbaa !12
  %39 = fcmp une double %38, 1.000000e+00
  br i1 %39, label %40, label %41

40:                                               ; preds = %30
  store i1 false, ptr %2, align 1
  store i32 1, ptr %7, align 4
  br label %58

41:                                               ; preds = %30
  br label %54

42:                                               ; preds = %26
  %43 = load ptr, ptr %5, align 8, !tbaa !18
  %44 = load i64, ptr %6, align 8, !tbaa !22
  %45 = load i64, ptr %4, align 8, !tbaa !22
  %46 = mul i64 %44, %45
  %47 = load i64, ptr %8, align 8, !tbaa !22
  %48 = add i64 %46, %47
  %49 = call noundef nonnull align 8 dereferenceable(8) ptr @_ZNKSt6vectorIdSaIdEEixEm(ptr noundef nonnull align 8 dereferenceable(24) %43, i64 noundef %48) #3
  %50 = load double, ptr %49, align 8, !tbaa !12
  %51 = fcmp une double %50, 0.000000e+00
  br i1 %51, label %52, label %53

52:                                               ; preds = %42
  store i1 false, ptr %2, align 1
  store i32 1, ptr %7, align 4
  br label %58

53:                                               ; preds = %42
  br label %54

54:                                               ; preds = %53, %41
  br label %55

55:                                               ; preds = %54
  %56 = load i64, ptr %8, align 8, !tbaa !22
  %57 = add i64 %56, 1
  store i64 %57, ptr %8, align 8, !tbaa !22
  br label %21, !llvm.loop !71

58:                                               ; preds = %52, %40, %25
  call void @llvm.lifetime.end.p0(i64 8, ptr %8) #3
  %59 = load i32, ptr %7, align 4
  switch i32 %59, label %64 [
    i32 5, label %60
  ]

60:                                               ; preds = %58
  br label %61

61:                                               ; preds = %60
  %62 = load i64, ptr %6, align 8, !tbaa !22
  %63 = add i64 %62, 1
  store i64 %63, ptr %6, align 8, !tbaa !22
  br label %15, !llvm.loop !72

64:                                               ; preds = %58, %19
  call void @llvm.lifetime.end.p0(i64 8, ptr %6) #3
  %65 = load i32, ptr %7, align 4
  switch i32 %65, label %67 [
    i32 2, label %66
  ]

66:                                               ; preds = %64
  store i1 true, ptr %2, align 1
  store i32 1, ptr %7, align 4
  br label %67

67:                                               ; preds = %66, %64
  call void @llvm.lifetime.end.p0(i64 8, ptr %5) #3
  call void @llvm.lifetime.end.p0(i64 8, ptr %4) #3
  %68 = load i1, ptr %2, align 1
  ret i1 %68
}