; Function Attrs: mustprogress uwtable
define hidden noundef zeroext i1 @_ZNK19OpenColorIO_v2_5dev12MatrixOpData11MatrixArray15isUnityDiagonalEv(ptr noundef nonnull align 8 dereferenceable(48) %0) local_unnamed_addr #3 align 2 {
  %2 = load ptr, ptr %0, align 8, !tbaa !15
  %3 = getelementptr inbounds nuw i8, ptr %2, i64 32
  %4 = load ptr, ptr %3, align 8
  %5 = tail call noundef i64 %4(ptr noundef nonnull align 8 dereferenceable(48) %0)
  %.not2532 = icmp eq i64 %5, 0
  br i1 %.not2532, label %.critedge27, label %.preheader.lr.ph

.preheader.lr.ph:                                 ; preds = %1
  %6 = getelementptr inbounds nuw i8, ptr %0, i64 24
  %7 = load ptr, ptr %6, align 8
  br label %.preheader

.preheader:                                       ; preds = %.preheader.lr.ph, %.critedge
  %.02133 = phi i64 [ 0, %.preheader.lr.ph ], [ %22, %.critedge ]
  %8 = mul i64 %.02133, %5
  %9 = getelementptr double, ptr %7, i64 %8
  %10 = getelementptr double, ptr %9, i64 %.02133
  br label %11

11:                                               ; preds = %.preheader, %20
  %.031 = phi i64 [ 0, %.preheader ], [ %21, %20 ]
  %12 = icmp eq i64 %.02133, %.031
  br i1 %12, label %13, label %16

13:                                               ; preds = %11
  %14 = load double, ptr %10, align 8, !tbaa !7
  %15 = fcmp une double %14, 1.000000e+00
  br i1 %15, label %.critedge27, label %20

16:                                               ; preds = %11
  %17 = getelementptr double, ptr %9, i64 %.031
  %18 = load double, ptr %17, align 8, !tbaa !7
  %19 = fcmp une double %18, 0.000000e+00
  br i1 %19, label %.critedge27, label %20

20:                                               ; preds = %13, %16
  %21 = add nuw i64 %.031, 1
  %exitcond.not = icmp eq i64 %21, %5
  br i1 %exitcond.not, label %.critedge, label %11, !llvm.loop !63

.critedge:                                        ; preds = %20
  %22 = add nuw i64 %.02133, 1
  %exitcond36.not = icmp eq i64 %22, %5
  br i1 %exitcond36.not, label %.critedge27, label %.preheader, !llvm.loop !64

.critedge27:                                      ; preds = %.critedge, %13, %16, %1
  %.not2530 = phi i1 [ true, %1 ], [ false, %16 ], [ false, %13 ], [ true, %.critedge ]
  ret i1 %.not2530
}